target datalayout = "e-m:e-p270:32:32-p271:32:32-p272:64:64-i64:64-i128:128-f80:128-n8:16:32:64-S128"
target triple = "x86_64-pc-linux-gnu"

%"class.cvc5::internal::NodeTemplate.398" = type { ptr }
%"class.cvc5::internal::expr::NodeValue" = type { i64, i64, ptr, [0 x ptr] }

; Function Attrs: inlinehint mustprogress nounwind uwtable
define linkonce_odr hidden noundef i32 @_ZN4cvc58internal4expr9NodeValue11dKindToKindEj(i32 noundef %0) #8 comdat align 2 {
  %2 = alloca i32, align 4
  store i32 %0, ptr %2, align 4, !tbaa !332
  %3 = load i32, ptr %2, align 4, !tbaa !332
  %4 = icmp eq i32 %3, 1023
  br i1 %4, label %5, label %6

5:                                                ; preds = %1
  br label %8

6:                                                ; preds = %1
  %7 = load i32, ptr %2, align 4, !tbaa !332
  br label %8

8:                                                ; preds = %6, %5
  %9 = phi i32 [ -1, %5 ], [ %7, %6 ]
  ret i32 %9
}

; Function Attrs: mustprogress uwtable
define linkonce_odr hidden noundef i32 @_ZNK4cvc58internal4expr9NodeValue7getKindEv(ptr noundef nonnull align 8 dereferenceable(24) %0) #4 comdat align 2 {
  %2 = alloca ptr, align 8
  store ptr %0, ptr %2, align 8, !tbaa !503
  %3 = load ptr, ptr %2, align 8
  %4 = getelementptr inbounds nuw %"class.cvc5::internal::expr::NodeValue", ptr %3, i32 0, i32 1
  %5 = load i64, ptr %4, align 8
  %6 = and i64 %5, 1023
  %7 = trunc i64 %6 to i32
  %8 = call noundef i32 @_ZN4cvc58internal4expr9NodeValue11dKindToKindEj(i32 noundef %7)
  ret i32 %8
}

; Function Attrs: mustprogress uwtable
define linkonce_odr hidden noundef i32 @_ZNK4cvc58internal4expr9NodeValue11getMetaKindEv(ptr noundef nonnull align 8 dereferenceable(24) %0) #4 comdat align 2 {
  %2 = alloca ptr, align 8
  store ptr %0, ptr %2, align 8, !tbaa !503
  %3 = load ptr, ptr %2, align 8
  %4 = call noundef i32 @_ZNK4cvc58internal4expr9NodeValue7getKindEv(ptr noundef nonnull align 8 dereferenceable(24) %3)
  %5 = call noundef i32 @_ZN4cvc58internal4kind10metaKindOfENS1_6Kind_tE(i32 noundef %4)
  ret i32 %5
}

; Function Attrs: mustprogress nounwind uwtable
define linkonce_odr hidden void @_ZN4cvc58internal12NodeTemplateILb0EEC2EPKNS0_4expr9NodeValueE(ptr noundef nonnull align 8 dereferenceable(8) %0, ptr noundef %1) unnamed_addr #5 comdat align 2 {
  %3 = alloca ptr, align 8
  %4 = alloca ptr, align 8
  store ptr %0, ptr %3, align 8, !tbaa !348
  store ptr %1, ptr %4, align 8, !tbaa !503
  %5 = load ptr, ptr %3, align 8
  %6 = getelementptr inbounds nuw %"class.cvc5::internal::NodeTemplate.398", ptr %5, i32 0, i32 0
  %7 = load ptr, ptr %4, align 8, !tbaa !503
  store ptr %7, ptr %6, align 8, !tbaa !350
  ret void
}

; Function Attrs: inlinehint mustprogress uwtable
define linkonce_odr hidden noundef ptr @_ZNK4cvc58internal4expr9NodeValue8getChildEi(ptr noundef nonnull align 8 dereferenceable(24) %0, i32 noundef %1) #7 comdat align 2 {
  %3 = alloca ptr, align 8
  %4 = alloca i32, align 4
  store ptr %0, ptr %3, align 8, !tbaa !503
  store i32 %1, ptr %4, align 4, !tbaa !332
  %5 = load ptr, ptr %3, align 8
  %6 = call noundef i32 @_ZNK4cvc58internal4expr9NodeValue11getMetaKindEv(ptr noundef nonnull align 8 dereferenceable(24) %5)
  %7 = icmp eq i32 %6, 2
  br i1 %7, label %8, label %11

8:                                                ; preds = %2
  %9 = load i32, ptr %4, align 4, !tbaa !332
  %10 = add nsw i32 %9, 1
  store i32 %10, ptr %4, align 4, !tbaa !332
  br label %11

11:                                               ; preds = %8, %2
  %12 = getelementptr inbounds nuw %"class.cvc5::internal::expr::NodeValue", ptr %5, i32 0, i32 3
  %13 = load i32, ptr %4, align 4, !tbaa !332
  %14 = sext i32 %13 to i64
  %15 = getelementptr inbounds [0 x ptr], ptr %12, i64 0, i64 %14
  %16 = load ptr, ptr %15, align 8, !tbaa !503
  ret ptr %16
}

; Function Attrs: mustprogress uwtable
define linkonce_odr hidden noundef i32 @_ZNK4cvc58internal4expr9NodeValue14getNumChildrenEv(ptr noundef nonnull align 8 dereferenceable(24) %0) #4 comdat align 2 {
  %2 = alloca ptr, align 8
  store ptr %0, ptr %2, align 8, !tbaa !503
  %3 = load ptr, ptr %2, align 8
  %4 = call noundef i32 @_ZNK4cvc58internal4expr9NodeValue11getMetaKindEv(ptr noundef nonnull align 8 dereferenceable(24) %3)
  %5 = icmp eq i32 %4, 2
  br i1 %5, label %6, label %13

6:                                                ; preds = %1
  %7 = getelementptr inbounds nuw %"class.cvc5::internal::expr::NodeValue", ptr %3, i32 0, i32 1
  %8 = load i64, ptr %7, align 8
  %9 = lshr i64 %8, 32
  %10 = and i64 %9, 67108863
  %11 = trunc i64 %10 to i32
  %12 = sub nsw i32 %11, 1
  br label %19

13:                                               ; preds = %1
  %14 = getelementptr inbounds nuw %"class.cvc5::internal::expr::NodeValue", ptr %3, i32 0, i32 1
  %15 = load i64, ptr %14, align 8
  %16 = lshr i64 %15, 32
  %17 = and i64 %16, 67108863
  %18 = trunc i64 %17 to i32
  br label %19

19:                                               ; preds = %13, %6
  %20 = phi i32 [ %12, %6 ], [ %18, %13 ]
  ret i32 %20
}

; Function Attrs: inlinehint mustprogress nounwind uwtable
define linkonce_odr hidden void @_ZNK4cvc58internal12NodeTemplateILb0EE21assertTNodeNotExpiredEv(ptr noundef nonnull align 8 dereferenceable(8) %0) #8 comdat align 2 {
  %2 = alloca ptr, align 8
  store ptr %0, ptr %2, align 8, !tbaa !348
  ret void
}

; Function Attrs: mustprogress uwtable
define linkonce_odr hidden void @_ZNK4cvc58internal12NodeTemplateILb0EEixEi(ptr dead_on_unwind noalias writable sret(%"class.cvc5::internal::NodeTemplate.398") align 8 %0, ptr noundef nonnull align 8 dereferenceable(8) %1, i32 noundef %2) #4 comdat align 2 {
  %4 = alloca ptr, align 8
  %5 = alloca ptr, align 8
  %6 = alloca i32, align 4
  store ptr %0, ptr %4, align 8
  store ptr %1, ptr %5, align 8, !tbaa !348
  store i32 %2, ptr %6, align 4, !tbaa !332
  %7 = load ptr, ptr %5, align 8
  call void @_ZNK4cvc58internal12NodeTemplateILb0EE21assertTNodeNotExpiredEv(ptr noundef nonnull align 8 dereferenceable(8) %7)
  %8 = getelementptr inbounds nuw %"class.cvc5::internal::NodeTemplate.398", ptr %7, i32 0, i32 0
  %9 = load ptr, ptr %8, align 8, !tbaa !350
  %10 = load i32, ptr %6, align 4, !tbaa !332
  %11 = call noundef ptr @_ZNK4cvc58internal4expr9NodeValue8getChildEi(ptr noundef nonnull align 8 dereferenceable(24) %9, i32 noundef %10)
  call void @_ZN4cvc58internal12NodeTemplateILb0EEC2EPKNS0_4expr9NodeValueE(ptr noundef nonnull align 8 dereferenceable(8) %0, ptr noundef %11)
  ret void
}

; Function Attrs: inlinehint mustprogress uwtable
define linkonce_odr hidden noundef i64 @_ZNK4cvc58internal12NodeTemplateILb0EE14getNumChildrenEv(ptr noundef nonnull align 8 dereferenceable(8) %0) #7 comdat align 2 {
  %2 = alloca ptr, align 8
  store ptr %0, ptr %2, align 8, !tbaa !348
  %3 = load ptr, ptr %2, align 8
  call void @_ZNK4cvc58internal12NodeTemplateILb0EE21assertTNodeNotExpiredEv(ptr noundef nonnull align 8 dereferenceable(8) %3)
  %4 = getelementptr inbounds nuw %"class.cvc5::internal::NodeTemplate.398", ptr %3, i32 0, i32 0
  %5 = load ptr, ptr %4, align 8, !tbaa !350
  %6 = call noundef i32 @_ZNK4cvc58internal4expr9NodeValue14getNumChildrenEv(ptr noundef nonnull align 8 dereferenceable(24) %5)
  %7 = zext i32 %6 to i64
  ret i64 %7
}

; Function Attrs: mustprogress uwtable
define hidden noundef zeroext i1 @_ZN4cvc58internal6theory11quantifiers8MatchGen15isHandledUfTermENS0_12NodeTemplateILb0EEE(ptr noundef %0) #4 align 2 {
  %2 = alloca ptr, align 8
  store ptr %0, ptr %2, align 8, !tbaa !348
  %3 = call noundef i32 @_ZNK4cvc58internal12NodeTemplateILb0EE7getKindEv(ptr noundef nonnull align 8 dereferenceable(8) %0)
  %4 = call noundef zeroext i1 @_ZN4cvc58internal6theory11quantifiers4inst15TriggerTermInfo19isAtomicTriggerKindENS0_4kind6Kind_tE(i32 noundef %3)
  ret i1 %4
}

; Function Attrs: mustprogress uwtable
define hidden noundef zeroext i1 @_ZN4cvc58internal6theory11quantifiers8MatchGen23isHandledBoolConnectiveENS0_12NodeTemplateILb0EEE(ptr noundef %0) #4 align 2 personality ptr @__gxx_personality_v0 {
  %2 = alloca ptr, align 8
  %3 = alloca %"class.cvc5::internal::NodeTemplate.398", align 8
  %4 = alloca ptr, align 8
  %5 = alloca i32, align 4
  store ptr %0, ptr %2, align 8, !tbaa !348
  call void @_ZN4cvc58internal12NodeTemplateILb0EEC2ERKS2_(ptr noundef nonnull align 8 dereferenceable(8) %3, ptr noundef nonnull align 8 dereferenceable(8) %0)
  %6 = invoke noundef zeroext i1 @_ZN4cvc58internal6theory11quantifiers8TermUtil20isBoolConnectiveTermENS0_12NodeTemplateILb0EEE(ptr noundef %3)
          to label %7 unwind label %14

7:                                                ; preds = %1
  br i1 %6, label %8, label %12

8:                                                ; preds = %7
  %9 = invoke noundef i32 @_ZNK4cvc58internal12NodeTemplateILb0EE7getKindEv(ptr noundef nonnull align 8 dereferenceable(8) %0)
          to label %10 unwind label %14

10:                                               ; preds = %8
  %11 = icmp ne i32 %9, 249
  br label %12

12:                                               ; preds = %10, %7
  %13 = phi i1 [ false, %7 ], [ %11, %10 ]
  call void @_ZN4cvc58internal12NodeTemplateILb0EED2Ev(ptr noundef nonnull align 8 dereferenceable(8) %3) #3
  ret i1 %13

14:                                               ; preds = %8, %1
  %15 = landingpad { ptr, i32 }
          cleanup
  %16 = extractvalue { ptr, i32 } %15, 0
  store ptr %16, ptr %4, align 8
  %17 = extractvalue { ptr, i32 } %15, 1
  store i32 %17, ptr %5, align 4
  call void @_ZN4cvc58internal12NodeTemplateILb0EED2Ev(ptr noundef nonnull align 8 dereferenceable(8) %3) #3
  br label %18

18:                                               ; preds = %14
  %19 = load ptr, ptr %4, align 8
  %20 = load i32, ptr %5, align 4
  %21 = insertvalue { ptr, i32 } poison, ptr %19, 0
  %22 = insertvalue { ptr, i32 } %21, i32 %20, 1
  resume { ptr, i32 } %22
}

; Function Attrs: mustprogress nounwind uwtable
define linkonce_odr hidden void @_ZN4cvc58internal12NodeTemplateILb0EED2Ev(ptr noundef nonnull align 8 dereferenceable(8) %0) unnamed_addr #5 comdat align 2 {
  %2 = alloca ptr, align 8
  store ptr %0, ptr %2, align 8, !tbaa !348
  ret void
}

; Function Attrs: mustprogress nounwind uwtable
define linkonce_odr hidden void @_ZN4cvc58internal12NodeTemplateILb0EEC2ERKS2_(ptr noundef nonnull align 8 dereferenceable(8) %0, ptr noundef nonnull align 8 dereferenceable(8) %1) unnamed_addr #5 comdat align 2 {
  %3 = alloca ptr, align 8
  %4 = alloca ptr, align 8
  store ptr %0, ptr %3, align 8, !tbaa !348
  store ptr %1, ptr %4, align 8, !tbaa !348
  %5 = load ptr, ptr %3, align 8
  %6 = load ptr, ptr %4, align 8, !tbaa !348
  %7 = getelementptr inbounds nuw %"class.cvc5::internal::NodeTemplate.398", ptr %6, i32 0, i32 0
  %8 = load ptr, ptr %7, align 8, !tbaa !350
  %9 = getelementptr inbounds nuw %"class.cvc5::internal::NodeTemplate.398", ptr %5, i32 0, i32 0
  store ptr %8, ptr %9, align 8, !tbaa !350
  ret void
}

; Function Attrs: inlinehint mustprogress nounwind uwtable
define linkonce_odr hidden noundef i32 @_ZNK4cvc58internal12NodeTemplateILb0EE7getKindEv(ptr noundef nonnull align 8 dereferenceable(8) %0) #8 comdat align 2 {
  %2 = alloca ptr, align 8
  store ptr %0, ptr %2, align 8, !tbaa !348
  %3 = load ptr, ptr %2, align 8
  call void @_ZNK4cvc58internal12NodeTemplateILb0EE21assertTNodeNotExpiredEv(ptr noundef nonnull align 8 dereferenceable(8) %3)
  %4 = getelementptr inbounds nuw %"class.cvc5::internal::NodeTemplate.398", ptr %3, i32 0, i32 0
  %5 = load ptr, ptr %4, align 8, !tbaa !350
  %6 = getelementptr inbounds nuw %"class.cvc5::internal::expr::NodeValue", ptr %5, i32 0, i32 1
  %7 = load i64, ptr %6, align 8
  %8 = and i64 %7, 1023
  %9 = trunc i64 %8 to i32
  ret i32 %9
}

; Function Attrs: mustprogress uwtable
define hidden noundef zeroext i1 @_ZN4cvc58internal6theory11quantifiers8MatchGen9isHandledENS0_12NodeTemplateILb0EEE(ptr noundef %0) #4 align 2 personality ptr @__gxx_personality_v0 {
  %2 = alloca i1, align 1
  %3 = alloca ptr, align 8
  %4 = alloca %"class.cvc5::internal::NodeTemplate.398", align 8
  %5 = alloca i1, align 1
  %6 = alloca ptr, align 8
  %7 = alloca i32, align 4
  %8 = alloca %"class.cvc5::internal::NodeTemplate.398", align 8
  %9 = alloca %"class.cvc5::internal::NodeTemplate.398", align 8
  %10 = alloca i1, align 1
  %11 = alloca i32, align 4
  %12 = alloca i32, align 4
  %13 = alloca %"class.cvc5::internal::NodeTemplate.398", align 8
  store ptr %0, ptr %3, align 8, !tbaa !348
  %14 = call noundef i32 @_ZNK4cvc58internal12NodeTemplateILb0EE7getKindEv(ptr noundef nonnull align 8 dereferenceable(8) %0)
  %15 = icmp ne i32 %14, 8
  store i1 false, ptr %5, align 1
  br i1 %15, label %16, label %19

16:                                               ; preds = %1
  call void @_ZN4cvc58internal12NodeTemplateILb0EEC2ERKS2_(ptr noundef nonnull align 8 dereferenceable(8) %4, ptr noundef nonnull align 8 dereferenceable(8) %0)
  store i1 true, ptr %5, align 1
  %17 = invoke noundef zeroext i1 @_ZN4cvc58internal4expr11hasBoundVarENS0_12NodeTemplateILb0EEE(ptr noundef %4)
          to label %18 unwind label %45

18:                                               ; preds = %16
  br label %19

19:                                               ; preds = %18, %1
  %20 = phi i1 [ false, %1 ], [ %17, %18 ]
  %21 = load i1, ptr %5, align 1
  br i1 %21, label %22, label %23

22:                                               ; preds = %19
  call void @_ZN4cvc58internal12NodeTemplateILb0EED2Ev(ptr noundef nonnull align 8 dereferenceable(8) %4) #3
  br label %23

23:                                               ; preds = %22, %19
  br i1 %20, label %24, label %88

24:                                               ; preds = %23
  call void @_ZN4cvc58internal12NodeTemplateILb0EEC2ERKS2_(ptr noundef nonnull align 8 dereferenceable(8) %8, ptr noundef nonnull align 8 dereferenceable(8) %0)
  store i1 false, ptr %10, align 1
  %25 = invoke noundef zeroext i1 @_ZN4cvc58internal6theory11quantifiers8MatchGen23isHandledBoolConnectiveENS0_12NodeTemplateILb0EEE(ptr noundef %8)
          to label %26 unwind label %52

26:                                               ; preds = %24
  br i1 %25, label %39, label %27

27:                                               ; preds = %26
  invoke void @_ZN4cvc58internal12NodeTemplateILb0EEC2ERKS2_(ptr noundef nonnull align 8 dereferenceable(8) %9, ptr noundef nonnull align 8 dereferenceable(8) %0)
          to label %28 unwind label %52

28:                                               ; preds = %27
  store i1 true, ptr %10, align 1
  %29 = invoke noundef zeroext i1 @_ZN4cvc58internal6theory11quantifiers8MatchGen15isHandledUfTermENS0_12NodeTemplateILb0EEE(ptr noundef %9)
          to label %30 unwind label %56

30:                                               ; preds = %28
  br i1 %29, label %39, label %31

31:                                               ; preds = %30
  %32 = invoke noundef i32 @_ZNK4cvc58internal12NodeTemplateILb0EE7getKindEv(ptr noundef nonnull align 8 dereferenceable(8) %0)
          to label %33 unwind label %56

33:                                               ; preds = %31
  %34 = icmp ne i32 %32, 5
  br i1 %34, label %35, label %39

35:                                               ; preds = %33
  %36 = invoke noundef i32 @_ZNK4cvc58internal12NodeTemplateILb0EE7getKindEv(ptr noundef nonnull align 8 dereferenceable(8) %0)
          to label %37 unwind label %56

37:                                               ; preds = %35
  %38 = icmp ne i32 %36, 26
  br label %39

39:                                               ; preds = %37, %33, %30, %26
  %40 = phi i1 [ false, %33 ], [ false, %30 ], [ false, %26 ], [ %38, %37 ]
  %41 = load i1, ptr %10, align 1
  br i1 %41, label %42, label %43

42:                                               ; preds = %39
  call void @_ZN4cvc58internal12NodeTemplateILb0EED2Ev(ptr noundef nonnull align 8 dereferenceable(8) %9) #3
  br label %43

43:                                               ; preds = %42, %39
  call void @_ZN4cvc58internal12NodeTemplateILb0EED2Ev(ptr noundef nonnull align 8 dereferenceable(8) %8) #3
  br i1 %40, label %44, label %64

44:                                               ; preds = %43
  store i1 false, ptr %2, align 1
  br label %89

45:                                               ; preds = %16
  %46 = landingpad { ptr, i32 }
          cleanup
  %47 = extractvalue { ptr, i32 } %46, 0
  store ptr %47, ptr %6, align 8
  %48 = extractvalue { ptr, i32 } %46, 1
  store i32 %48, ptr %7, align 4
  %49 = load i1, ptr %5, align 1
  br i1 %49, label %50, label %51

50:                                               ; preds = %45
  call void @_ZN4cvc58internal12NodeTemplateILb0EED2Ev(ptr noundef nonnull align 8 dereferenceable(8) %4) #3
  br label %51

51:                                               ; preds = %50, %45
  br label %91

52:                                               ; preds = %27, %24
  %53 = landingpad { ptr, i32 }
          cleanup
  %54 = extractvalue { ptr, i32 } %53, 0
  store ptr %54, ptr %6, align 8
  %55 = extractvalue { ptr, i32 } %53, 1
  store i32 %55, ptr %7, align 4
  br label %63

56:                                               ; preds = %35, %31, %28
  %57 = landingpad { ptr, i32 }
          cleanup
  %58 = extractvalue { ptr, i32 } %57, 0
  store ptr %58, ptr %6, align 8
  %59 = extractvalue { ptr, i32 } %57, 1
  store i32 %59, ptr %7, align 4
  %60 = load i1, ptr %10, align 1
  br i1 %60, label %61, label %62

61:                                               ; preds = %56
  call void @_ZN4cvc58internal12NodeTemplateILb0EED2Ev(ptr noundef nonnull align 8 dereferenceable(8) %9) #3
  br label %62

62:                                               ; preds = %61, %56
  br label %63

63:                                               ; preds = %62, %52
  call void @_ZN4cvc58internal12NodeTemplateILb0EED2Ev(ptr noundef nonnull align 8 dereferenceable(8) %8) #3
  br label %91

64:                                               ; preds = %43
  call void @llvm.lifetime.start.p0(i64 4, ptr %11) #3
  store i32 0, ptr %11, align 4, !tbaa !332
  br label %65

65:                                               ; preds = %82, %64
  %66 = load i32, ptr %11, align 4, !tbaa !332
  %67 = zext i32 %66 to i64
  %68 = call noundef i64 @_ZNK4cvc58internal12NodeTemplateILb0EE14getNumChildrenEv(ptr noundef nonnull align 8 dereferenceable(8) %0)
  %69 = icmp ult i64 %67, %68
  br i1 %69, label %71, label %70

70:                                               ; preds = %65
  store i32 2, ptr %12, align 4
  br label %85

71:                                               ; preds = %65
  %72 = load i32, ptr %11, align 4, !tbaa !332
  call void @_ZNK4cvc58internal12NodeTemplateILb0EEixEi(ptr dead_on_unwind writable sret(%"class.cvc5::internal::NodeTemplate.398") align 8 %13, ptr noundef nonnull align 8 dereferenceable(8) %0, i32 noundef %72)
  %73 = invoke noundef zeroext i1 @_ZN4cvc58internal6theory11quantifiers8MatchGen9isHandledENS0_12NodeTemplateILb0EEE(ptr noundef %13)
          to label %74 unwind label %77

74:                                               ; preds = %71
  %75 = xor i1 %73, true
  call void @_ZN4cvc58internal12NodeTemplateILb0EED2Ev(ptr noundef nonnull align 8 dereferenceable(8) %13) #3
  br i1 %75, label %76, label %81

76:                                               ; preds = %74
  store i1 false, ptr %2, align 1
  store i32 1, ptr %12, align 4
  br label %85

77:                                               ; preds = %71
  %78 = landingpad { ptr, i32 }
          cleanup
  %79 = extractvalue { ptr, i32 } %78, 0
  store ptr %79, ptr %6, align 8
  %80 = extractvalue { ptr, i32 } %78, 1
  store i32 %80, ptr %7, align 4
  call void @_ZN4cvc58internal12NodeTemplateILb0EED2Ev(ptr noundef nonnull align 8 dereferenceable(8) %13) #3
  call void @llvm.lifetime.end.p0(i64 4, ptr %11) #3
  br label %91

81:                                               ; preds = %74
  br label %82

82:                                               ; preds = %81
  %83 = load i32, ptr %11, align 4, !tbaa !332
  %84 = add i32 %83, 1
  store i32 %84, ptr %11, align 4, !tbaa !332
  br label %65, !llvm.loop !780

85:                                               ; preds = %76, %70
  call void @llvm.lifetime.end.p0(i64 4, ptr %11) #3
  %86 = load i32, ptr %12, align 4
  switch i32 %86, label %96 [
    i32 2, label %87
    i32 1, label %89
  ]

87:                                               ; preds = %85
  br label %88

88:                                               ; preds = %87, %23
  store i1 true, ptr %2, align 1
  br label %89

89:                                               ; preds = %88, %85, %44
  %90 = load i1, ptr %2, align 1
  ret i1 %90

91:                                               ; preds = %77, %63, %51
  %92 = load ptr, ptr %6, align 8
  %93 = load i32, ptr %7, align 4
  %94 = insertvalue { ptr, i32 } poison, ptr %92, 0
  %95 = insertvalue { ptr, i32 } %94, i32 %93, 1
  resume { ptr, i32 } %95

96:                                               ; preds = %85
  unreachable
}