; Function Attrs: mustprogress uwtable
define hidden noundef zeroext i1 @_ZN4cvc58internal6theory11quantifiers8MatchGen9isHandledENS0_12NodeTemplateILb0EEE(ptr noundef readonly captures(none) %0) local_unnamed_addr #3 align 2 personality ptr @__gxx_personality_v0 {
  %2 = alloca %"class.cvc5::internal::NodeTemplate.398", align 8
  %3 = alloca %"class.cvc5::internal::NodeTemplate.398", align 8
  %4 = alloca %"class.cvc5::internal::NodeTemplate.398", align 8
  %5 = load ptr, ptr %0, align 8, !tbaa !92
  %6 = getelementptr inbounds nuw i8, ptr %5, i64 8
  %7 = load i64, ptr %6, align 8
  %8 = and i64 %7, 1023
  %.not.not = icmp eq i64 %8, 8
  br i1 %.not.not, label %.thread24, label %9

9:                                                ; preds = %1
  store ptr %5, ptr %3, align 8, !tbaa !92
  %10 = call noundef zeroext i1 @_ZN4cvc58internal4expr11hasBoundVarENS0_12NodeTemplateILb0EEE(ptr noundef nonnull %3)
  br i1 %10, label %.noexc, label %.thread24

.noexc:                                           ; preds = %9
  %11 = load ptr, ptr %0, align 8, !tbaa !92
  call void @llvm.lifetime.start.p0(i64 8, ptr nonnull %2)
  store ptr %11, ptr %2, align 8, !tbaa !92
  %12 = call noundef zeroext i1 @_ZN4cvc58internal6theory11quantifiers8TermUtil20isBoolConnectiveTermENS0_12NodeTemplateILb0EEE(ptr noundef nonnull %2)
  br i1 %12, label %13, label %.thread25

.thread25:                                        ; preds = %.noexc
  call void @llvm.lifetime.end.p0(i64 8, ptr nonnull %2)
  br label %_ZN4cvc58internal6theory11quantifiers8MatchGen15isHandledUfTermENS0_12NodeTemplateILb0EEE.exit

13:                                               ; preds = %.noexc
  %14 = getelementptr inbounds nuw i8, ptr %11, i64 8
  %15 = load i64, ptr %14, align 8
  %16 = and i64 %15, 1023
  %.not = icmp eq i64 %16, 249
  call void @llvm.lifetime.end.p0(i64 8, ptr nonnull %2)
  br i1 %.not, label %_ZN4cvc58internal6theory11quantifiers8MatchGen15isHandledUfTermENS0_12NodeTemplateILb0EEE.exit, label %..preheader_crit_edge

..preheader_crit_edge:                            ; preds = %13
  %.pre = load ptr, ptr %0, align 8, !tbaa !92
  br label %.preheader

_ZN4cvc58internal6theory11quantifiers8MatchGen15isHandledUfTermENS0_12NodeTemplateILb0EEE.exit: ; preds = %.thread25, %13
  %17 = load ptr, ptr %0, align 8, !tbaa !92
  %18 = getelementptr inbounds nuw i8, ptr %17, i64 8
  %19 = load i64, ptr %18, align 8
  %20 = trunc i64 %19 to i32
  %21 = and i32 %20, 1023
  %22 = call noundef zeroext i1 @_ZN4cvc58internal6theory11quantifiers4inst15TriggerTermInfo19isAtomicTriggerKindENS0_4kind6Kind_tE(i32 noundef %21)
  %.pre35 = load ptr, ptr %0, align 8, !tbaa !92
  br i1 %22, label %.preheader, label %23

23:                                               ; preds = %_ZN4cvc58internal6theory11quantifiers8MatchGen15isHandledUfTermENS0_12NodeTemplateILb0EEE.exit
  %24 = getelementptr inbounds nuw i8, ptr %.pre35, i64 8
  %25 = load i64, ptr %24, align 8
  %26 = trunc i64 %25 to i32
  %27 = and i32 %26, 1023
  switch i32 %27, label %.thread24 [
    i32 5, label %.preheader
    i32 26, label %.preheader
  ]

.preheader:                                       ; preds = %..preheader_crit_edge, %_ZN4cvc58internal6theory11quantifiers8MatchGen15isHandledUfTermENS0_12NodeTemplateILb0EEE.exit, %23, %23
  %28 = phi ptr [ %.pre, %..preheader_crit_edge ], [ %.pre35, %_ZN4cvc58internal6theory11quantifiers8MatchGen15isHandledUfTermENS0_12NodeTemplateILb0EEE.exit ], [ %.pre35, %23 ], [ %.pre35, %23 ]
  %29 = getelementptr inbounds nuw i8, ptr %28, i64 8
  %30 = load i64, ptr %29, align 8
  %31 = trunc i64 %30 to i32
  %32 = and i32 %31, 1023
  %33 = icmp eq i32 %32, 1023
  %34 = select i1 %33, i32 -1, i32 %32
  %35 = call noundef i32 @_ZN4cvc58internal4kind10metaKindOfENS1_6Kind_tE(i32 noundef %34)
  %36 = icmp eq i32 %35, 2
  %37 = load i64, ptr %29, align 8
  %38 = lshr i64 %37, 32
  %39 = and i64 %38, 67108863
  %40 = sext i1 %36 to i64
  %41 = add nsw i64 %39, %40
  %42 = and i64 %41, 4294967295
  %.not34 = icmp eq i64 %42, 0
  br i1 %.not34, label %.thread24, label %.lr.ph

43:                                               ; preds = %.lr.ph
  %44 = add nuw i32 %.01031, 1
  %45 = zext i32 %44 to i64
  %46 = load ptr, ptr %0, align 8, !tbaa !92
  %47 = getelementptr inbounds nuw i8, ptr %46, i64 8
  %48 = load i64, ptr %47, align 8
  %49 = trunc i64 %48 to i32
  %50 = and i32 %49, 1023
  %51 = icmp eq i32 %50, 1023
  %52 = select i1 %51, i32 -1, i32 %50
  %53 = call noundef i32 @_ZN4cvc58internal4kind10metaKindOfENS1_6Kind_tE(i32 noundef %52)
  %54 = icmp eq i32 %53, 2
  %55 = load i64, ptr %47, align 8
  %56 = lshr i64 %55, 32
  %57 = and i64 %56, 67108863
  %58 = sext i1 %54 to i64
  %59 = add nsw i64 %57, %58
  %60 = and i64 %59, 4294967295
  %61 = icmp samesign ugt i64 %60, %45
  br i1 %61, label %.lr.ph, label %.thread24, !llvm.loop !867

.lr.ph:                                           ; preds = %.preheader, %43
  %.01031 = phi i32 [ %44, %43 ], [ 0, %.preheader ]
  call void @llvm.experimental.noalias.scope.decl(metadata !868)
  %62 = load ptr, ptr %0, align 8, !tbaa !92, !noalias !868
  %63 = getelementptr inbounds nuw i8, ptr %62, i64 8
  %64 = load i64, ptr %63, align 8, !noalias !868
  %65 = trunc i64 %64 to i32
  %66 = and i32 %65, 1023
  %67 = icmp eq i32 %66, 1023
  %68 = select i1 %67, i32 -1, i32 %66
  %69 = call noundef i32 @_ZN4cvc58internal4kind10metaKindOfENS1_6Kind_tE(i32 noundef %68), !noalias !868
  %70 = icmp eq i32 %69, 2
  %71 = zext i1 %70 to i32
  %spec.select.i.i = add nsw i32 %.01031, %71
  %72 = getelementptr inbounds nuw i8, ptr %62, i64 24
  %73 = sext i32 %spec.select.i.i to i64
  %74 = getelementptr inbounds [0 x ptr], ptr %72, i64 0, i64 %73
  %75 = load ptr, ptr %74, align 8, !tbaa !103, !noalias !868
  store ptr %75, ptr %4, align 8, !tbaa !92, !alias.scope !868
  %76 = call noundef zeroext i1 @_ZN4cvc58internal6theory11quantifiers8MatchGen9isHandledENS0_12NodeTemplateILb0EEE(ptr noundef nonnull %4)
  br i1 %76, label %43, label %.thread24

.thread24:                                        ; preds = %43, %.lr.ph, %.preheader, %23, %1, %9
  %.016 = phi i1 [ true, %9 ], [ true, %1 ], [ false, %23 ], [ true, %.preheader ], [ %76, %.lr.ph ], [ %76, %43 ]
  ret i1 %.016
}